(i__main__
LogFile
p0
(dp1
S'_installed_files'
p2
(dp3
S'../../../../../../../cvmfs/bes3.ihep.ac.cn/bes3sw/ExternalLib/SLC6/ExternalLib/gaudi/GAUDI_v23r9/GaudiCoreSvc/x86_64-slc6-gcc46-opt/libGaudiCoreSvc.so'
p4
S'../../../InstallArea/x86_64-slc6-gcc46-opt/lib/libGaudiCoreSvc.so'
p5
sS'../../../../../../../../../../cvmfs/bes3.ihep.ac.cn/bes3sw/Boss/7.0.6/Generator/KKMC/KKMC-00-00-62/x86_64-slc6-gcc46-opt/libkkmc.so'
p6
S'../../../InstallArea/x86_64-slc6-gcc46-opt/lib/libkkmc.so'
p7
sS'../../../../../../../cvmfs/bes3.ihep.ac.cn/bes3sw/Boss/7.0.5/Generator/KKMC/KKMC-00-00-62/x86_64-slc6-gcc46-opt/libkkmc.so'
p8
S'../../../InstallArea/x86_64-slc6-gcc46-opt/lib/libkkmc.so'
p9
sS'../../../../../../../../../../cvmfs/bes3.ihep.ac.cn/bes3sw/Boss/7.0.6/Generator/Bhwide/Bhwide-00-00-11/x86_64-slc6-gcc46-opt/libbhwide.so'
p10
S'../../../InstallArea/x86_64-slc6-gcc46-opt/lib/libbhwide.so'
p11
sS'../../../../../../../cvmfs/bes3.ihep.ac.cn/bes3sw/ExternalLib/SLC6/ExternalLib/gaudi/GAUDI_v23r9/GaudiSvc/x86_64-slc6-gcc46-opt/libGaudiSvc.so'
p12
S'../../../InstallArea/x86_64-slc6-gcc46-opt/lib/libGaudiSvc.so'
p13
sS'../../../../../../../../../../cvmfs/bes3.ihep.ac.cn/bes3sw/ExternalLib/SLC6/ExternalLib/gaudi/GAUDI_v23r9/GaudiSvc/x86_64-slc6-gcc46-opt/libGaudiSvc.so'
p14
S'../../../InstallArea/x86_64-slc6-gcc46-opt/lib/libGaudiSvc.so'
p15
sS'../../../../../../../../../../cvmfs/bes3.ihep.ac.cn/bes3sw/Boss/7.0.5/Generator/KKMC/KKMC-00-00-62/x86_64-slc6-gcc46-opt/libkkmc.so'
p16
S'../../../InstallArea/x86_64-slc6-gcc46-opt/lib/libkkmc.so'
p17
sS'../../../../../../../cvmfs/bes3.ihep.ac.cn/bes3sw/Boss/7.0.5/Generator/Bhwide/Bhwide-00-00-11/x86_64-slc6-gcc46-opt/libbhwide.so'
p18
S'../../../InstallArea/x86_64-slc6-gcc46-opt/lib/libbhwide.so'
p19
sS'../../../../../../../../../../cvmfs/bes3.ihep.ac.cn/bes3sw/Boss/7.0.3/Generator/KKMC/KKMC-00-00-57/x86_64-slc6-gcc46-opt/libkkmc.so'
p20
S'../../../InstallArea/x86_64-slc6-gcc46-opt/lib/libkkmc.so'
p21
sS'../../../../../../../../../../cvmfs/bes3.ihep.ac.cn/bes3sw/Boss/7.0.3/Generator/Bhwide/Bhwide-00-00-11/x86_64-slc6-gcc46-opt/libbhwide.so'
p22
S'../../../InstallArea/x86_64-slc6-gcc46-opt/lib/libbhwide.so'
p23
sS'../../../../../../../../../../cvmfs/bes3.ihep.ac.cn/bes3sw/Boss/7.0.5/Generator/Bhwide/Bhwide-00-00-11/x86_64-slc6-gcc46-opt/libbhwide.so'
p24
S'../../../InstallArea/x86_64-slc6-gcc46-opt/lib/libbhwide.so'
p25
sS'../../../../../../../../../../cvmfs/bes3.ihep.ac.cn/bes3sw/ExternalLib/SLC6/ExternalLib/gaudi/GAUDI_v23r9/GaudiCoreSvc/x86_64-slc6-gcc46-opt/libGaudiCoreSvc.so'
p26
S'../../../InstallArea/x86_64-slc6-gcc46-opt/lib/libGaudiCoreSvc.so'
p27
ssb.