(i__main__
LogFile
p0
(dp1
S'_installed_files'
p2
(dp3
S'../../../../../ExternalLib/SLC6/ExternalLib/gaudi/GAUDI_v23r9/GaudiCoreSvc/x86_64-slc6-gcc46-opt/libGaudiCoreSvc.so'
p4
S'../../../InstallArea/x86_64-slc6-gcc46-opt/lib/libGaudiCoreSvc.so'
p5
sS'../../../Generator/KKMC/KKMC-00-00-62/x86_64-slc6-gcc46-opt/libkkmc.so'
p6
S'../../../InstallArea/x86_64-slc6-gcc46-opt/lib/libkkmc.so'
p7
sS'../../../../../ExternalLib/SLC6/ExternalLib/gaudi/GAUDI_v23r9/GaudiSvc/x86_64-slc6-gcc46-opt/libGaudiSvc.so'
p8
S'../../../InstallArea/x86_64-slc6-gcc46-opt/lib/libGaudiSvc.so'
p9
sS'../../../Generator/Bhwide/Bhwide-00-00-11/x86_64-slc6-gcc46-opt/libbhwide.so'
p10
S'../../../InstallArea/x86_64-slc6-gcc46-opt/lib/libbhwide.so'
p11
ssb.